target datalayout = "e-m:e-p270:32:32-p271:32:32-p272:64:64-i64:64-i128:128-f80:128-n8:16:32:64-S128"
target triple = "x86_64-pc-linux-gnu"

%struct.graph_stack_t = type { ptr, i64, i64, i64 }
%struct.userdata_t = type { %struct.agxbuf, %struct.agxbuf, %struct.agxbuf, i8, i32, i32, i8, i8, ptr }
%struct.agxbuf = type { %union.anon }
%union.anon = type { %struct.anon }
%struct.anon = type { ptr, i64, i64, [7 x i8], i8 }

@Current_class = internal global i32 0, align 4
@root = internal global ptr null, align 8
@stderr = external global ptr, align 8
@.str = private unnamed_addr constant [16 x i8] c"%s at line %lu\0A\00", align 1
@Gstack = internal global %struct.graph_stack_t zeroinitializer, align 8
@Dtoset = external global ptr, align 8
@nameDisc = internal global { i32, i32, i32, [4 x i8], ptr, ptr, ptr } { i32 16, i32 -1, i32 0, [4 x i8] zeroinitializer, ptr @make_nitem, ptr @free_nitem, ptr null }, align 8

; Function Attrs: inlinehint nounwind uwtable
define internal void @graph_stack_noop_(ptr noundef %0) #5 {
  %2 = alloca ptr, align 8
  store ptr %0, ptr %2, align 8, !tbaa !13
  ret void
}

; Function Attrs: inlinehint nounwind uwtable
define internal ptr @graph_stack_get(ptr noundef %0, i64 noundef %1) #5 {
  %3 = alloca ptr, align 8
  %4 = alloca i64, align 8
  store ptr %0, ptr %3, align 8, !tbaa !28
  store i64 %1, ptr %4, align 8, !tbaa !15
  %5 = load ptr, ptr %3, align 8, !tbaa !28
  %6 = getelementptr inbounds nuw %struct.graph_stack_t, ptr %5, i32 0, i32 0
  %7 = load ptr, ptr %6, align 8, !tbaa !47
  %8 = load ptr, ptr %3, align 8, !tbaa !28
  %9 = getelementptr inbounds nuw %struct.graph_stack_t, ptr %8, i32 0, i32 1
  %10 = load i64, ptr %9, align 8, !tbaa !68
  %11 = load i64, ptr %4, align 8, !tbaa !15
  %12 = add i64 %10, %11
  %13 = load ptr, ptr %3, align 8, !tbaa !28
  %14 = getelementptr inbounds nuw %struct.graph_stack_t, ptr %13, i32 0, i32 3
  %15 = load i64, ptr %14, align 8, !tbaa !66
  %16 = urem i64 %12, %15
  %17 = getelementptr inbounds nuw ptr, ptr %7, i64 %16
  %18 = load ptr, ptr %17, align 8, !tbaa !13
  ret ptr %18
}

; Function Attrs: inlinehint nounwind uwtable
define internal void @graph_stack_clear(ptr noundef %0) #5 {
  %2 = alloca ptr, align 8
  %3 = alloca i64, align 8
  store ptr %0, ptr %2, align 8, !tbaa !28
  call void @llvm.lifetime.start.p0(i64 8, ptr %3) #14
  store i64 0, ptr %3, align 8, !tbaa !15
  br label %4

4:                                                ; preds = %18, %1
  %5 = load i64, ptr %3, align 8, !tbaa !15
  %6 = load ptr, ptr %2, align 8, !tbaa !28
  %7 = getelementptr inbounds nuw %struct.graph_stack_t, ptr %6, i32 0, i32 2
  %8 = load i64, ptr %7, align 8, !tbaa !65
  %9 = icmp ult i64 %5, %8
  br i1 %9, label %11, label %10

10:                                               ; preds = %4
  call void @llvm.lifetime.end.p0(i64 8, ptr %3) #14
  br label %21

11:                                               ; preds = %4
  %12 = load ptr, ptr %2, align 8, !tbaa !28
  %13 = load i64, ptr %3, align 8, !tbaa !15
  %14 = call ptr @graph_stack_get(ptr noundef %12, i64 noundef %13)
  call void @graph_stack_noop_(ptr noundef %14)
  br label %15

15:                                               ; preds = %11
  br label %16

16:                                               ; preds = %15
  br label %17

17:                                               ; preds = %16
  br label %18

18:                                               ; preds = %17
  %19 = load i64, ptr %3, align 8, !tbaa !15
  %20 = add i64 %19, 1
  store i64 %20, ptr %3, align 8, !tbaa !15
  br label %4, !llvm.loop !73

21:                                               ; preds = %10
  %22 = load ptr, ptr %2, align 8, !tbaa !28
  %23 = getelementptr inbounds nuw %struct.graph_stack_t, ptr %22, i32 0, i32 2
  store i64 0, ptr %23, align 8, !tbaa !65
  %24 = load ptr, ptr %2, align 8, !tbaa !28
  %25 = getelementptr inbounds nuw %struct.graph_stack_t, ptr %24, i32 0, i32 1
  store i64 0, ptr %25, align 8, !tbaa !68
  ret void
}

; Function Attrs: inlinehint nounwind uwtable
define internal void @agxbfree(ptr noundef %0) #5 {
  %2 = alloca ptr, align 8
  store ptr %0, ptr %2, align 8, !tbaa !28
  %3 = load ptr, ptr %2, align 8, !tbaa !28
  %4 = getelementptr inbounds nuw %struct.agxbuf, ptr %3, i32 0, i32 0
  %5 = getelementptr inbounds nuw %struct.anon, ptr %4, i32 0, i32 4
  %6 = load i8, ptr %5, align 1, !tbaa !56
  %7 = zext i8 %6 to i32
  %8 = icmp eq i32 %7, 255
  br i1 %8, label %9, label %14

9:                                                ; preds = %1
  %10 = load ptr, ptr %2, align 8, !tbaa !28
  %11 = getelementptr inbounds nuw %struct.agxbuf, ptr %10, i32 0, i32 0
  %12 = getelementptr inbounds nuw %struct.anon, ptr %11, i32 0, i32 0
  %13 = load ptr, ptr %12, align 8, !tbaa !56
  call void @free(ptr noundef %13) #14
  br label %14

14:                                               ; preds = %9, %1
  ret void
}

; Function Attrs: inlinehint nounwind uwtable
define internal void @graph_stack_free(ptr noundef %0) #5 {
  %2 = alloca ptr, align 8
  store ptr %0, ptr %2, align 8, !tbaa !28
  %3 = load ptr, ptr %2, align 8, !tbaa !28
  call void @graph_stack_clear(ptr noundef %3)
  %4 = load ptr, ptr %2, align 8, !tbaa !28
  %5 = getelementptr inbounds nuw %struct.graph_stack_t, ptr %4, i32 0, i32 0
  %6 = load ptr, ptr %5, align 8, !tbaa !47
  call void @free(ptr noundef %6) #14
  %7 = load ptr, ptr %2, align 8, !tbaa !28
  call void @llvm.memset.p0.i64(ptr align 8 %7, i8 0, i64 32, i1 false)
  ret void
}

; Function Attrs: nounwind uwtable
define internal void @freeUserdata(ptr noundef byval(%struct.userdata_t) align 8 %0) #0 {
  %2 = getelementptr inbounds nuw %struct.userdata_t, ptr %0, i32 0, i32 8
  %3 = load ptr, ptr %2, align 8, !tbaa !29
  %4 = call i32 @dtclose(ptr noundef %3)
  %5 = getelementptr inbounds nuw %struct.userdata_t, ptr %0, i32 0, i32 0
  call void @agxbfree(ptr noundef %5)
  %6 = getelementptr inbounds nuw %struct.userdata_t, ptr %0, i32 0, i32 1
  call void @agxbfree(ptr noundef %6)
  %7 = getelementptr inbounds nuw %struct.userdata_t, ptr %0, i32 0, i32 2
  call void @agxbfree(ptr noundef %7)
  ret void
}

; Function Attrs: nounwind uwtable
define internal void @genUserdata(ptr dead_on_unwind noalias writable sret(%struct.userdata_t) align 8 %0) #0 {
  call void @llvm.memset.p0.i64(ptr align 8 %0, i8 0, i64 120, i1 false)
  %2 = getelementptr inbounds nuw %struct.userdata_t, ptr %0, i32 0, i32 3
  store i8 0, ptr %2, align 8, !tbaa !19
  %3 = getelementptr inbounds nuw %struct.userdata_t, ptr %0, i32 0, i32 4
  store i32 0, ptr %3, align 4, !tbaa !24
  %4 = getelementptr inbounds nuw %struct.userdata_t, ptr %0, i32 0, i32 5
  store i32 0, ptr %4, align 8, !tbaa !25
  %5 = getelementptr inbounds nuw %struct.userdata_t, ptr %0, i32 0, i32 6
  store i8 0, ptr %5, align 4, !tbaa !26
  %6 = getelementptr inbounds nuw %struct.userdata_t, ptr %0, i32 0, i32 7
  store i8 0, ptr %6, align 1, !tbaa !27
  %7 = load ptr, ptr @Dtoset, align 8, !tbaa !28
  %8 = call ptr @dtopen(ptr noundef @nameDisc, ptr noundef %7)
  %9 = getelementptr inbounds nuw %struct.userdata_t, ptr %0, i32 0, i32 8
  store ptr %8, ptr %9, align 8, !tbaa !29
  ret void
}

; Function Attrs: nounwind uwtable
define dso_local ptr @gxl_to_gv(ptr noundef %0) #0 {
  %2 = alloca ptr, align 8
  %3 = alloca [8192 x i8], align 16
  %4 = alloca i32, align 4
  %5 = alloca %struct.userdata_t, align 8
  %6 = alloca ptr, align 8
  %7 = alloca i64, align 8
  %8 = alloca i32, align 4
  store ptr %0, ptr %2, align 8, !tbaa !4
  call void @llvm.lifetime.start.p0(i64 8192, ptr %3) #14
  call void @llvm.lifetime.start.p0(i64 4, ptr %4) #14
  call void @llvm.lifetime.start.p0(i64 120, ptr %5) #14
  call void @genUserdata(ptr dead_on_unwind writable sret(%struct.userdata_t) align 8 %5)
  call void @llvm.lifetime.start.p0(i64 8, ptr %6) #14
  %9 = call ptr @XML_ParserCreate(ptr noundef null)
  store ptr %9, ptr %6, align 8, !tbaa !9
  %10 = load ptr, ptr %6, align 8, !tbaa !9
  call void @XML_SetUserData(ptr noundef %10, ptr noundef %5)
  %11 = load ptr, ptr %6, align 8, !tbaa !9
  call void @XML_SetElementHandler(ptr noundef %11, ptr noundef @startElementHandler, ptr noundef @endElementHandler)
  %12 = load ptr, ptr %6, align 8, !tbaa !9
  call void @XML_SetCharacterDataHandler(ptr noundef %12, ptr noundef @characterDataHandler)
  store i32 1, ptr @Current_class, align 4, !tbaa !11
  store ptr null, ptr @root, align 8, !tbaa !13
  br label %13

13:                                               ; preds = %43, %1
  call void @llvm.lifetime.start.p0(i64 8, ptr %7) #14
  %14 = getelementptr inbounds [8192 x i8], ptr %3, i64 0, i64 0
  %15 = load ptr, ptr %2, align 8, !tbaa !4
  %16 = call i64 @fread(ptr noundef %14, i64 noundef 1, i64 noundef 8192, ptr noundef %15)
  store i64 %16, ptr %7, align 8, !tbaa !15
  %17 = load i64, ptr %7, align 8, !tbaa !15
  %18 = icmp eq i64 %17, 0
  br i1 %18, label %19, label %20

19:                                               ; preds = %13
  store i32 2, ptr %8, align 4
  br label %40

20:                                               ; preds = %13
  %21 = load i64, ptr %7, align 8, !tbaa !15
  %22 = icmp ult i64 %21, 8192
  %23 = zext i1 %22 to i32
  store i32 %23, ptr %4, align 4, !tbaa !11
  %24 = load ptr, ptr %6, align 8, !tbaa !9
  %25 = getelementptr inbounds [8192 x i8], ptr %3, i64 0, i64 0
  %26 = load i64, ptr %7, align 8, !tbaa !15
  %27 = trunc i64 %26 to i32
  %28 = load i32, ptr %4, align 4, !tbaa !11
  %29 = call i32 @XML_Parse(ptr noundef %24, ptr noundef %25, i32 noundef %27, i32 noundef %28)
  %30 = icmp eq i32 %29, 0
  br i1 %30, label %31, label %39

31:                                               ; preds = %20
  %32 = load ptr, ptr @stderr, align 8, !tbaa !4
  %33 = load ptr, ptr %6, align 8, !tbaa !9
  %34 = call i32 @XML_GetErrorCode(ptr noundef %33)
  %35 = call ptr @XML_ErrorString(i32 noundef %34)
  %36 = load ptr, ptr %6, align 8, !tbaa !9
  %37 = call i64 @XML_GetCurrentLineNumber(ptr noundef %36)
  %38 = call i32 (ptr, ptr, ...) @fprintf(ptr noundef %32, ptr noundef @.str, ptr noundef %35, i64 noundef %37) #14
  call void @graphviz_exit(i32 noundef 1) #15
  unreachable

39:                                               ; preds = %20
  store i32 0, ptr %8, align 4
  br label %40

40:                                               ; preds = %39, %19
  call void @llvm.lifetime.end.p0(i64 8, ptr %7) #14
  %41 = load i32, ptr %8, align 4
  switch i32 %41, label %50 [
    i32 0, label %42
    i32 2, label %47
  ]

42:                                               ; preds = %40
  br label %43

43:                                               ; preds = %42
  %44 = load i32, ptr %4, align 4, !tbaa !11
  %45 = icmp ne i32 %44, 0
  %46 = xor i1 %45, true
  br i1 %46, label %13, label %47, !llvm.loop !17

47:                                               ; preds = %43, %40
  %48 = load ptr, ptr %6, align 8, !tbaa !9
  call void @XML_ParserFree(ptr noundef %48)
  call void @freeUserdata(ptr noundef byval(%struct.userdata_t) align 8 %5)
  call void @graph_stack_free(ptr noundef @Gstack)
  %49 = load ptr, ptr @root, align 8, !tbaa !13
  store i32 1, ptr %8, align 4
  call void @llvm.lifetime.end.p0(i64 8, ptr %6) #14
  call void @llvm.lifetime.end.p0(i64 120, ptr %5) #14
  call void @llvm.lifetime.end.p0(i64 4, ptr %4) #14
  call void @llvm.lifetime.end.p0(i64 8192, ptr %3) #14
  ret ptr %49

50:                                               ; preds = %40
  unreachable
}