; Function Attrs: nounwind uwtable
define dso_local ptr @gxl_to_gv(ptr noundef captures(none) %0) local_unnamed_addr #0 {
  %2 = alloca [8192 x i8], align 16
  %3 = alloca %struct.userdata_t, align 8
  call void @llvm.lifetime.start.p0(i64 8192, ptr nonnull %2) #24
  call void @llvm.lifetime.start.p0(i64 120, ptr nonnull %3) #24
  tail call void @llvm.experimental.noalias.scope.decl(metadata !4)
  call void @llvm.memset.p0.i64(ptr noundef nonnull align 8 dereferenceable(112) %3, i8 0, i64 112, i1 false), !alias.scope !4
  %4 = load ptr, ptr @Dtoset, align 8, !tbaa !7, !noalias !4
  %5 = tail call ptr @dtopen(ptr noundef nonnull @nameDisc, ptr noundef %4) #24, !noalias !4
  %6 = getelementptr inbounds nuw i8, ptr %3, i64 112
  store ptr %5, ptr %6, align 8, !tbaa !11, !alias.scope !4
  %7 = tail call ptr @XML_ParserCreate(ptr noundef null) #24
  call void @XML_SetUserData(ptr noundef %7, ptr noundef nonnull %3) #24
  call void @XML_SetElementHandler(ptr noundef %7, ptr noundef nonnull @startElementHandler, ptr noundef nonnull @endElementHandler) #24
  call void @XML_SetCharacterDataHandler(ptr noundef %7, ptr noundef nonnull @characterDataHandler) #24
  store i32 1, ptr @Current_class, align 4, !tbaa !17
  store ptr null, ptr @root, align 8, !tbaa !18
  br label %8

8:                                                ; preds = %23, %1
  %9 = call i64 @fread(ptr noundef nonnull %2, i64 noundef 1, i64 noundef 8192, ptr noundef %0)
  %10 = icmp eq i64 %9, 0
  br i1 %10, label %.thread, label %11

11:                                               ; preds = %8
  %12 = icmp ult i64 %9, 8192
  %13 = zext i1 %12 to i32
  %14 = trunc i64 %9 to i32
  %15 = call i32 @XML_Parse(ptr noundef %7, ptr noundef nonnull %2, i32 noundef %14, i32 noundef %13) #24
  %16 = icmp eq i32 %15, 0
  br i1 %16, label %17, label %23

17:                                               ; preds = %11
  %18 = load ptr, ptr @stderr, align 8, !tbaa !20
  %19 = call i32 @XML_GetErrorCode(ptr noundef %7) #24
  %20 = call ptr @XML_ErrorString(i32 noundef %19) #24
  %21 = call i64 @XML_GetCurrentLineNumber(ptr noundef %7) #24
  %22 = call i32 (ptr, ptr, ...) @fprintf(ptr noundef %18, ptr noundef nonnull @.str, ptr noundef %20, i64 noundef %21) #25
  call fastcc void @graphviz_exit() #26
  unreachable

23:                                               ; preds = %11
  br i1 %12, label %.thread, label %8, !llvm.loop !22

.thread:                                          ; preds = %8, %23
  call void @XML_ParserFree(ptr noundef %7) #24
  %.sroa.0.0.copyload = load ptr, ptr %3, align 8
  %.sroa.415.0..sroa_idx = getelementptr inbounds nuw i8, ptr %3, i64 31
  %.sroa.415.0.copyload = load i8, ptr %.sroa.415.0..sroa_idx, align 1
  %.sroa.5.0..sroa_idx = getelementptr inbounds nuw i8, ptr %3, i64 32
  %.sroa.5.0.copyload = load ptr, ptr %.sroa.5.0..sroa_idx, align 8
  %.sroa.616.0..sroa_idx = getelementptr inbounds nuw i8, ptr %3, i64 63
  %.sroa.616.0.copyload = load i8, ptr %.sroa.616.0..sroa_idx, align 1
  %.sroa.7.0..sroa_idx = getelementptr inbounds nuw i8, ptr %3, i64 64
  %.sroa.7.0.copyload = load ptr, ptr %.sroa.7.0..sroa_idx, align 8
  %.sroa.817.0..sroa_idx = getelementptr inbounds nuw i8, ptr %3, i64 95
  %.sroa.817.0.copyload = load i8, ptr %.sroa.817.0..sroa_idx, align 1
  %.sroa.918.0.copyload = load ptr, ptr %6, align 8
  %24 = call i32 @dtclose(ptr noundef %.sroa.918.0.copyload) #24
  %25 = icmp eq i8 %.sroa.415.0.copyload, -1
  br i1 %25, label %26, label %agxbfree.exit.i

26:                                               ; preds = %.thread
  call void @free(ptr noundef %.sroa.0.0.copyload) #24
  br label %agxbfree.exit.i

agxbfree.exit.i:                                  ; preds = %26, %.thread
  %27 = icmp eq i8 %.sroa.616.0.copyload, -1
  br i1 %27, label %28, label %agxbfree.exit6.i

28:                                               ; preds = %agxbfree.exit.i
  call void @free(ptr noundef %.sroa.5.0.copyload) #24
  br label %agxbfree.exit6.i

agxbfree.exit6.i:                                 ; preds = %28, %agxbfree.exit.i
  %29 = icmp eq i8 %.sroa.817.0.copyload, -1
  br i1 %29, label %30, label %freeUserdata.exit

30:                                               ; preds = %agxbfree.exit6.i
  call void @free(ptr noundef %.sroa.7.0.copyload) #24
  br label %freeUserdata.exit

freeUserdata.exit:                                ; preds = %agxbfree.exit6.i, %30
  call void @llvm.memset.p0.i64(ptr noundef nonnull align 8 dereferenceable(16) getelementptr inbounds nuw (i8, ptr @Gstack, i64 8), i8 0, i64 16, i1 false)
  %31 = load ptr, ptr @Gstack, align 8, !tbaa !24
  call void @free(ptr noundef %31) #24
  call void @llvm.memset.p0.i64(ptr noundef nonnull align 8 dereferenceable(32) @Gstack, i8 0, i64 32, i1 false)
  %32 = load ptr, ptr @root, align 8, !tbaa !18
  call void @llvm.lifetime.end.p0(i64 120, ptr nonnull %3) #24
  call void @llvm.lifetime.end.p0(i64 8192, ptr nonnull %2) #24
  ret ptr %32
}